target datalayout = "e-m:e-p270:32:32-p271:32:32-p272:64:64-i64:64-i128:128-f80:128-n8:16:32:64-S128"
target triple = "x86_64-pc-linux-gnu"

%struct._packet_info = type { ptr, ptr, i32, i32, %struct.nstime_t, %struct.nstime_t, %struct.nstime_t, i8, ptr, ptr, ptr, ptr, %struct._address, %struct._address, %struct._address, %struct._address, %struct._address, %struct._address, i32, ptr, i8, [3 x i8], %struct.anon, i32, i32, i32, i32, ptr, i8, ptr, ptr, i16, i16, i32, i32, i16, i32, i32, ptr, ptr, ptr, i8, i8, i16, i16, i16, i32, i16, i16, ptr, ptr, ptr, ptr, ptr, i32, i32 }
%struct.nstime_t = type { i64, i32 }
%struct._address = type { i32, i32, ptr, ptr }
%struct.anon = type { i8, [3 x i8] }
%struct._proto_node = type { ptr, ptr, ptr, ptr, ptr, ptr, ptr }
%struct.field_info = type { ptr, i32, i32, i32, i32, i32, i32, ptr, ptr, ptr, i32, i32 }

@hf_juniper_cookie_len = internal global i32 0, align 4
@hf_juniper_mlpic_cookie = internal global i32 0, align 4
@hf_juniper_lspic_cookie = internal global i32 0, align 4
@hf_juniper_aspic_cookie = internal global i32 0, align 4
@ett_juniper = internal global i32 0, align 4
@.str.231 = private unnamed_addr constant [14 x i8] c"Juniper MLPPP\00", align 1

; Function Attrs: inlinehint nounwind null_pointer_is_valid sspstrong uwtable
define internal void @proto_item_set_generated(ptr noundef %0) #4 {
  %2 = alloca ptr, align 8
  store ptr %0, ptr %2, align 8
  %3 = load ptr, ptr %2, align 8
  %4 = icmp ne ptr %3, null
  br i1 %4, label %5, label %24

5:                                                ; preds = %1
  br label %6

6:                                                ; preds = %5
  %7 = load ptr, ptr %2, align 8
  %8 = getelementptr inbounds nuw %struct._proto_node, ptr %7, i32 0, i32 5
  %9 = load ptr, ptr %8, align 8
  %10 = icmp ne ptr %9, null
  br i1 %10, label %11, label %22

11:                                               ; preds = %6
  %12 = load ptr, ptr %2, align 8
  %13 = getelementptr inbounds nuw %struct._proto_node, ptr %12, i32 0, i32 5
  %14 = load ptr, ptr %13, align 8
  %15 = getelementptr inbounds nuw %struct.field_info, ptr %14, i32 0, i32 6
  %16 = load i32, ptr %15, align 4
  %17 = or i32 %16, 2
  %18 = load ptr, ptr %2, align 8
  %19 = getelementptr inbounds nuw %struct._proto_node, ptr %18, i32 0, i32 5
  %20 = load ptr, ptr %19, align 8
  %21 = getelementptr inbounds nuw %struct.field_info, ptr %20, i32 0, i32 6
  store i32 %17, ptr %21, align 4
  br label %22

22:                                               ; preds = %11, %6
  br label %23

23:                                               ; preds = %22
  br label %24

24:                                               ; preds = %23, %1
  ret void
}

; Function Attrs: nounwind null_pointer_is_valid sspstrong uwtable
define internal zeroext i1 @ppp_heuristic_guess(i16 noundef zeroext %0) #3 {
  %2 = alloca i1, align 1
  %3 = alloca i16, align 2
  store i16 %0, ptr %3, align 2
  %4 = load i16, ptr %3, align 2
  %5 = zext i16 %4 to i32
  switch i32 %5, label %7 [
    i32 33, label %6
    i32 35, label %6
    i32 641, label %6
    i32 643, label %6
    i32 32801, label %6
    i32 32803, label %6
    i32 33409, label %6
    i32 49185, label %6
    i32 49187, label %6
    i32 49699, label %6
    i32 61, label %6
    i32 87, label %6
    i32 32855, label %6
  ]

6:                                                ; preds = %1, %1, %1, %1, %1, %1, %1, %1, %1, %1, %1, %1, %1
  store i1 true, ptr %2, align 1
  br label %8

7:                                                ; preds = %1
  store i1 false, ptr %2, align 1
  br label %8

8:                                                ; preds = %7, %6
  %9 = load i1, ptr %2, align 1
  ret i1 %9
}

; Function Attrs: nounwind null_pointer_is_valid sspstrong uwtable
define internal i32 @juniper_svc_cookie_len(i64 noundef %0) #3 {
  %2 = alloca i32, align 4
  %3 = alloca i64, align 8
  %4 = alloca i8, align 1
  %5 = alloca i32, align 4
  store i64 %0, ptr %3, align 8
  call void @llvm.lifetime.start.p0(i64 1, ptr %4) #5
  %6 = load i64, ptr %3, align 8
  %7 = lshr i64 %6, 56
  %8 = trunc i64 %7 to i8
  %9 = zext i8 %8 to i32
  %10 = and i32 %9, 255
  %11 = trunc i32 %10 to i8
  store i8 %11, ptr %4, align 1
  %12 = load i8, ptr %4, align 1
  %13 = zext i8 %12 to i32
  switch i32 %13, label %16 [
    i32 84, label %14
    i32 64, label %15
    i32 71, label %15
  ]

14:                                               ; preds = %1
  store i32 4, ptr %2, align 4
  store i32 1, ptr %5, align 4
  br label %17

15:                                               ; preds = %1, %1
  store i32 8, ptr %2, align 4
  store i32 1, ptr %5, align 4
  br label %17

16:                                               ; preds = %1
  store i32 0, ptr %2, align 4
  store i32 1, ptr %5, align 4
  br label %17

17:                                               ; preds = %16, %15, %14
  call void @llvm.lifetime.end.p0(i64 1, ptr %4) #5
  %18 = load i32, ptr %2, align 4
  ret i32 %18
}

; Function Attrs: nounwind null_pointer_is_valid sspstrong uwtable
define internal i32 @juniper_svc_cookie_proto(i64 noundef %0, i16 noundef zeroext %1, i8 noundef zeroext %2) #3 {
  %4 = alloca i32, align 4
  %5 = alloca i64, align 8
  %6 = alloca i16, align 2
  %7 = alloca i8, align 1
  %8 = alloca i8, align 1
  %9 = alloca i16, align 2
  %10 = alloca i8, align 1
  %11 = alloca i32, align 4
  store i64 %0, ptr %5, align 8
  store i16 %1, ptr %6, align 2
  store i8 %2, ptr %7, align 1
  call void @llvm.lifetime.start.p0(i64 1, ptr %8) #5
  call void @llvm.lifetime.start.p0(i64 2, ptr %9) #5
  call void @llvm.lifetime.start.p0(i64 1, ptr %10) #5
  %12 = load i64, ptr %5, align 8
  %13 = lshr i64 %12, 56
  %14 = trunc i64 %13 to i8
  %15 = zext i8 %14 to i32
  %16 = and i32 %15, 255
  %17 = trunc i32 %16 to i8
  store i8 %17, ptr %8, align 1
  %18 = load i64, ptr %5, align 8
  %19 = lshr i64 %18, 16
  %20 = and i64 %19, 240
  %21 = trunc i64 %20 to i16
  store i16 %21, ptr %9, align 2
  %22 = load i64, ptr %5, align 8
  %23 = lshr i64 %22, 24
  %24 = trunc i64 %23 to i8
  %25 = zext i8 %24 to i32
  %26 = and i32 %25, 3
  %27 = trunc i32 %26 to i8
  store i8 %27, ptr %10, align 1
  %28 = load i8, ptr %8, align 1
  %29 = zext i8 %28 to i32
  switch i32 %29, label %64 [
    i32 84, label %30
    i32 64, label %36
    i32 71, label %36
  ]

30:                                               ; preds = %3
  %31 = load i16, ptr %6, align 2
  %32 = zext i16 %31 to i32
  switch i32 %32, label %35 [
    i32 3, label %33
    i32 4, label %34
  ]

33:                                               ; preds = %30
  store i32 200, ptr %4, align 4
  store i32 1, ptr %11, align 4
  br label %65

34:                                               ; preds = %30
  store i32 201, ptr %4, align 4
  store i32 1, ptr %11, align 4
  br label %65

35:                                               ; preds = %30
  store i32 0, ptr %4, align 4
  store i32 1, ptr %11, align 4
  br label %65

36:                                               ; preds = %3, %3
  %37 = load i16, ptr %9, align 2
  %38 = zext i16 %37 to i32
  switch i32 %38, label %63 [
    i32 0, label %39
    i32 16, label %60
    i32 32, label %61
    i32 48, label %62
  ]

39:                                               ; preds = %36
  %40 = load i16, ptr %6, align 2
  %41 = zext i16 %40 to i32
  switch i32 %41, label %59 [
    i32 3, label %42
    i32 4, label %53
  ]

42:                                               ; preds = %39
  %43 = load i8, ptr %7, align 1
  %44 = zext i8 %43 to i32
  %45 = and i32 %44, 1
  %46 = icmp eq i32 %45, 1
  br i1 %46, label %47, label %52

47:                                               ; preds = %42
  %48 = load i8, ptr %10, align 1
  %49 = zext i8 %48 to i32
  %50 = icmp ne i32 %49, 3
  br i1 %50, label %51, label %52

51:                                               ; preds = %47
  store i32 200, ptr %4, align 4
  store i32 1, ptr %11, align 4
  br label %65

52:                                               ; preds = %47, %42
  store i32 2, ptr %4, align 4
  store i32 1, ptr %11, align 4
  br label %65

53:                                               ; preds = %39
  %54 = load i8, ptr %10, align 1
  %55 = zext i8 %54 to i32
  %56 = icmp eq i32 %55, 3
  br i1 %56, label %57, label %58

57:                                               ; preds = %53
  store i32 0, ptr %4, align 4
  store i32 1, ptr %11, align 4
  br label %65

58:                                               ; preds = %53
  store i32 2, ptr %4, align 4
  store i32 1, ptr %11, align 4
  br label %65

59:                                               ; preds = %39
  store i32 0, ptr %4, align 4
  store i32 1, ptr %11, align 4
  br label %65

60:                                               ; preds = %36
  store i32 6, ptr %4, align 4
  store i32 1, ptr %11, align 4
  br label %65

61:                                               ; preds = %36
  store i32 5, ptr %4, align 4
  store i32 1, ptr %11, align 4
  br label %65

62:                                               ; preds = %36
  store i32 201, ptr %4, align 4
  store i32 1, ptr %11, align 4
  br label %65

63:                                               ; preds = %36
  store i32 0, ptr %4, align 4
  store i32 1, ptr %11, align 4
  br label %65

64:                                               ; preds = %3
  store i32 0, ptr %4, align 4
  store i32 1, ptr %11, align 4
  br label %65

65:                                               ; preds = %64, %63, %62, %61, %60, %59, %58, %57, %52, %51, %35, %34, %33
  call void @llvm.lifetime.end.p0(i64 1, ptr %10) #5
  call void @llvm.lifetime.end.p0(i64 2, ptr %9) #5
  call void @llvm.lifetime.end.p0(i64 1, ptr %8) #5
  %66 = load i32, ptr %4, align 4
  ret i32 %66
}

; Function Attrs: null_pointer_is_valid sspstrong uwtable
define internal i32 @dissect_juniper_mlppp(ptr noundef %0, ptr noundef %1, ptr noundef %2, ptr noundef %3) #0 {
  %5 = alloca i32, align 4
  %6 = alloca ptr, align 8
  %7 = alloca ptr, align 8
  %8 = alloca ptr, align 8
  %9 = alloca ptr, align 8
  %10 = alloca ptr, align 8
  %11 = alloca ptr, align 8
  %12 = alloca i32, align 4
  %13 = alloca i32, align 4
  %14 = alloca i8, align 1
  %15 = alloca i64, align 8
  %16 = alloca i32, align 4
  %17 = alloca i16, align 2
  %18 = alloca i32, align 4
  %19 = alloca i32, align 4
  %20 = alloca i32, align 4
  store ptr %0, ptr %6, align 8
  store ptr %1, ptr %7, align 8
  store ptr %2, ptr %8, align 8
  store ptr %3, ptr %9, align 8
  call void @llvm.lifetime.start.p0(i64 8, ptr %10) #5
  call void @llvm.lifetime.start.p0(i64 8, ptr %11) #5
  call void @llvm.lifetime.start.p0(i64 4, ptr %12) #5
  call void @llvm.lifetime.start.p0(i64 4, ptr %13) #5
  call void @llvm.lifetime.start.p0(i64 1, ptr %14) #5
  call void @llvm.lifetime.start.p0(i64 8, ptr %15) #5
  call void @llvm.lifetime.start.p0(i64 4, ptr %16) #5
  call void @llvm.lifetime.start.p0(i64 2, ptr %17) #5
  call void @llvm.lifetime.start.p0(i64 4, ptr %18) #5
  call void @llvm.lifetime.start.p0(i64 4, ptr %19) #5
  %21 = load ptr, ptr %7, align 8
  %22 = getelementptr inbounds nuw %struct._packet_info, ptr %21, i32 0, i32 1
  %23 = load ptr, ptr %22, align 8
  call void @col_set_str(ptr noundef %23, i32 noundef 35, ptr noundef @.str.231)
  %24 = load ptr, ptr %7, align 8
  %25 = getelementptr inbounds nuw %struct._packet_info, ptr %24, i32 0, i32 1
  %26 = load ptr, ptr %25, align 8
  call void @col_clear(ptr noundef %26, i32 noundef 25)
  store i32 0, ptr %12, align 4
  %27 = load ptr, ptr %8, align 8
  %28 = load ptr, ptr %6, align 8
  %29 = load i32, ptr %12, align 4
  %30 = load i32, ptr @ett_juniper, align 4
  %31 = call ptr @proto_tree_add_subtree(ptr noundef %27, ptr noundef %28, i32 noundef %29, i32 noundef 4, i32 noundef %30, ptr noundef null, ptr noundef @.str.231)
  store ptr %31, ptr %11, align 8
  %32 = load ptr, ptr %6, align 8
  %33 = load ptr, ptr %7, align 8
  %34 = load ptr, ptr %8, align 8
  %35 = load ptr, ptr %11, align 8
  %36 = call i32 @dissect_juniper_header(ptr noundef %32, ptr noundef %33, ptr noundef %34, ptr noundef %35, ptr noundef %14)
  store i32 %36, ptr %13, align 4
  %37 = load i32, ptr %13, align 4
  %38 = icmp eq i32 %37, -1
  br i1 %38, label %39, label %40

39:                                               ; preds = %4
  store i32 4, ptr %5, align 4
  store i32 1, ptr %20, align 4
  br label %136

40:                                               ; preds = %4
  %41 = load i32, ptr %13, align 4
  %42 = load i32, ptr %12, align 4
  %43 = add i32 %42, %41
  store i32 %43, ptr %12, align 4
  br label %44

44:                                               ; preds = %40
  %45 = load ptr, ptr %6, align 8
  %46 = load i32, ptr %12, align 4
  %47 = call i64 @tvb_get_ntoh64(ptr noundef %45, i32 noundef %46)
  store i64 %47, ptr %15, align 8
  %48 = load i64, ptr %15, align 8
  %49 = load i8, ptr %14, align 1
  %50 = call i32 @juniper_svc_cookie_proto(i64 noundef %48, i16 noundef zeroext 3, i8 noundef zeroext %49)
  store i32 %50, ptr %18, align 4
  %51 = load i64, ptr %15, align 8
  %52 = call i32 @juniper_svc_cookie_len(i64 noundef %51)
  store i32 %52, ptr %19, align 4
  %53 = load i32, ptr %19, align 4
  %54 = icmp eq i32 %53, 8
  br i1 %54, label %55, label %62

55:                                               ; preds = %44
  %56 = load ptr, ptr %11, align 8
  %57 = load i32, ptr @hf_juniper_aspic_cookie, align 4
  %58 = load ptr, ptr %6, align 8
  %59 = load i32, ptr %12, align 4
  %60 = load i64, ptr %15, align 8
  %61 = call ptr @proto_tree_add_uint64(ptr noundef %56, i32 noundef %57, ptr noundef %58, i32 noundef %59, i32 noundef 8, i64 noundef %60)
  br label %62

62:                                               ; preds = %55, %44
  %63 = load i32, ptr %19, align 4
  %64 = icmp eq i32 %63, 4
  br i1 %64, label %65, label %75

65:                                               ; preds = %62
  %66 = load ptr, ptr %6, align 8
  %67 = load i32, ptr %12, align 4
  %68 = call i32 @tvb_get_ntohl(ptr noundef %66, i32 noundef %67)
  store i32 %68, ptr %16, align 4
  %69 = load ptr, ptr %11, align 8
  %70 = load i32, ptr @hf_juniper_lspic_cookie, align 4
  %71 = load ptr, ptr %6, align 8
  %72 = load i32, ptr %12, align 4
  %73 = load i32, ptr %16, align 4
  %74 = call ptr @proto_tree_add_uint(ptr noundef %69, i32 noundef %70, ptr noundef %71, i32 noundef %72, i32 noundef 4, i32 noundef %73)
  br label %75

75:                                               ; preds = %65, %62
  %76 = load i32, ptr %19, align 4
  %77 = icmp eq i32 %76, 0
  br i1 %77, label %78, label %87

78:                                               ; preds = %75
  %79 = load ptr, ptr %6, align 8
  %80 = load i32, ptr %12, align 4
  %81 = call zeroext i16 @tvb_get_ntohs(ptr noundef %79, i32 noundef %80)
  %82 = zext i16 %81 to i32
  %83 = icmp eq i32 %82, 65283
  br i1 %83, label %84, label %87

84:                                               ; preds = %78
  store i32 200, ptr %18, align 4
  %85 = load i32, ptr %12, align 4
  %86 = add i32 %85, 2
  store i32 %86, ptr %12, align 4
  br label %87

87:                                               ; preds = %84, %78, %75
  %88 = load i32, ptr %19, align 4
  %89 = icmp eq i32 %88, 0
  br i1 %89, label %90, label %107

90:                                               ; preds = %87
  %91 = load ptr, ptr %6, align 8
  %92 = load i32, ptr %12, align 4
  %93 = add i32 %92, 2
  %94 = call zeroext i16 @tvb_get_ntohs(ptr noundef %91, i32 noundef %93)
  %95 = call zeroext i1 @ppp_heuristic_guess(i16 noundef zeroext %94)
  br i1 %95, label %96, label %107

96:                                               ; preds = %90
  store i32 200, ptr %18, align 4
  store i32 2, ptr %19, align 4
  %97 = load ptr, ptr %6, align 8
  %98 = load i32, ptr %12, align 4
  %99 = call zeroext i16 @tvb_get_ntohs(ptr noundef %97, i32 noundef %98)
  store i16 %99, ptr %17, align 2
  %100 = load ptr, ptr %11, align 8
  %101 = load i32, ptr @hf_juniper_mlpic_cookie, align 4
  %102 = load ptr, ptr %6, align 8
  %103 = load i32, ptr %12, align 4
  %104 = load i16, ptr %17, align 2
  %105 = zext i16 %104 to i32
  %106 = call ptr @proto_tree_add_uint(ptr noundef %100, i32 noundef %101, ptr noundef %102, i32 noundef %103, i32 noundef 2, i32 noundef %105)
  br label %107

107:                                              ; preds = %96, %90, %87
  %108 = load i32, ptr %19, align 4
  %109 = icmp eq i32 %108, 0
  br i1 %109, label %110, label %116

110:                                              ; preds = %107
  %111 = load ptr, ptr %6, align 8
  %112 = load i32, ptr %12, align 4
  %113 = call zeroext i16 @tvb_get_ntohs(ptr noundef %111, i32 noundef %112)
  %114 = call zeroext i1 @ppp_heuristic_guess(i16 noundef zeroext %113)
  br i1 %114, label %115, label %116

115:                                              ; preds = %110
  store i32 200, ptr %18, align 4
  br label %116

116:                                              ; preds = %115, %110, %107
  %117 = load ptr, ptr %11, align 8
  %118 = load i32, ptr @hf_juniper_cookie_len, align 4
  %119 = load ptr, ptr %6, align 8
  %120 = load i32, ptr %12, align 4
  %121 = load i32, ptr %19, align 4
  %122 = call ptr @proto_tree_add_uint(ptr noundef %117, i32 noundef %118, ptr noundef %119, i32 noundef %120, i32 noundef 0, i32 noundef %121)
  store ptr %122, ptr %10, align 8
  %123 = load ptr, ptr %10, align 8
  call void @proto_item_set_generated(ptr noundef %123)
  %124 = load i32, ptr %19, align 4
  %125 = load i32, ptr %12, align 4
  %126 = add i32 %125, %124
  store i32 %126, ptr %12, align 4
  %127 = load ptr, ptr %6, align 8
  %128 = load ptr, ptr %7, align 8
  %129 = load ptr, ptr %8, align 8
  %130 = load ptr, ptr %11, align 8
  %131 = load i32, ptr %18, align 4
  %132 = load i32, ptr %12, align 4
  %133 = call i32 @dissect_juniper_payload_proto(ptr noundef %127, ptr noundef %128, ptr noundef %129, ptr noundef %130, i32 noundef %131, i32 noundef %132)
  %134 = load ptr, ptr %6, align 8
  %135 = call i32 @tvb_captured_length(ptr noundef %134)
  store i32 %135, ptr %5, align 4
  store i32 1, ptr %20, align 4
  br label %136

136:                                              ; preds = %116, %39
  call void @llvm.lifetime.end.p0(i64 4, ptr %19) #5
  call void @llvm.lifetime.end.p0(i64 4, ptr %18) #5
  call void @llvm.lifetime.end.p0(i64 2, ptr %17) #5
  call void @llvm.lifetime.end.p0(i64 4, ptr %16) #5
  call void @llvm.lifetime.end.p0(i64 8, ptr %15) #5
  call void @llvm.lifetime.end.p0(i64 1, ptr %14) #5
  call void @llvm.lifetime.end.p0(i64 4, ptr %13) #5
  call void @llvm.lifetime.end.p0(i64 4, ptr %12) #5
  call void @llvm.lifetime.end.p0(i64 8, ptr %11) #5
  call void @llvm.lifetime.end.p0(i64 8, ptr %10) #5
  %137 = load i32, ptr %5, align 4
  ret i32 %137
}